target datalayout = "e-m:e-p270:32:32-p271:32:32-p272:64:64-i64:64-i128:128-f80:128-n8:16:32:64-S128"
target triple = "x86_64-pc-linux-gnu"

%struct.H5O_link_t = type { i32, i8, i64, i32, ptr, %union.anon }
%union.anon = type { %struct.H5O_link_ud_t }
%struct.H5O_link_ud_t = type { ptr, i64 }
%struct.H5O_link_hard_t = type { i64 }
%struct.H5O_loc_t = type { ptr, i64, i8 }
%struct.H5L_class_t = type { i32, i32, ptr, ptr, ptr, ptr, ptr, ptr, ptr }

@.str.1 = private unnamed_addr constant [101 x i8] c"generated/home/dtcxzyw/WorkSpace/Projects/compilers/llvm-opt-benchmark/bench/hdf5/hdf5/src/H5Olink.c\00", align 1
@__func__.H5O_link_delete = private unnamed_addr constant [16 x i8] c"H5O_link_delete\00", align 1
@H5E_OHDR_g = external global i64, align 8
@H5E_CANTFREE_g = external global i64, align 8
@.str.2 = private unnamed_addr constant [38 x i8] c"unable to decrement object link count\00", align 1
@H5E_NOTREGISTERED_g = external global i64, align 8
@.str.3 = private unnamed_addr constant [26 x i8] c"link class not registered\00", align 1
@H5E_CANTGET_g = external global i64, align 8
@.str.4 = private unnamed_addr constant [22 x i8] c"unable to get file ID\00", align 1
@H5E_CALLBACK_g = external global i64, align 8
@.str.5 = private unnamed_addr constant [40 x i8] c"link deletion callback returned failure\00", align 1
@H5E_CANTCLOSEFILE_g = external global i64, align 8
@.str.6 = private unnamed_addr constant [17 x i8] c"can't close file\00", align 1

; Function Attrs: nounwind uwtable
define i32 @H5O_link_delete(ptr noundef %0, ptr noundef %1, ptr noundef %2) #0 {
  %4 = alloca ptr, align 8
  %5 = alloca ptr, align 8
  %6 = alloca ptr, align 8
  %7 = alloca ptr, align 8
  %8 = alloca i64, align 8
  %9 = alloca i32, align 4
  %10 = alloca i8, align 1
  %11 = alloca %struct.H5O_loc_t, align 8
  %12 = alloca ptr, align 8
  store ptr %0, ptr %4, align 8
  store ptr %1, ptr %5, align 8
  store ptr %2, ptr %6, align 8
  %13 = load ptr, ptr %6, align 8
  store ptr %13, ptr %7, align 8
  store i64 -1, ptr %8, align 8
  store i32 0, ptr %9, align 4
  store i8 0, ptr %10, align 1
  %14 = load ptr, ptr %7, align 8
  %15 = getelementptr inbounds %struct.H5O_link_t, ptr %14, i32 0, i32 0
  %16 = load i32, ptr %15, align 8
  %17 = icmp eq i32 %16, 0
  br i1 %17, label %18, label %45

18:                                               ; preds = %3
  %19 = call i32 @H5O_loc_reset(ptr noundef %11)
  %20 = load ptr, ptr %4, align 8
  %21 = getelementptr inbounds %struct.H5O_loc_t, ptr %11, i32 0, i32 0
  store ptr %20, ptr %21, align 8
  %22 = load ptr, ptr %7, align 8
  %23 = getelementptr inbounds %struct.H5O_link_t, ptr %22, i32 0, i32 5
  %24 = getelementptr inbounds %struct.H5O_link_hard_t, ptr %23, i32 0, i32 0
  %25 = load i64, ptr %24, align 8
  %26 = getelementptr inbounds %struct.H5O_loc_t, ptr %11, i32 0, i32 1
  store i64 %25, ptr %26, align 8
  %27 = call i32 @H5O_link(ptr noundef %11, i32 noundef -1)
  %28 = icmp slt i32 %27, 0
  br i1 %28, label %29, label %44

29:                                               ; preds = %18
  br label %30

30:                                               ; preds = %29
  br label %31

31:                                               ; preds = %30
  br label %32

32:                                               ; preds = %31
  %33 = load i64, ptr @H5E_OHDR_g, align 8
  %34 = load i64, ptr @H5E_CANTFREE_g, align 8
  %35 = call i32 (ptr, ptr, i32, i64, i64, ptr, ...) @H5E_printf_stack(ptr noundef @.str.1, ptr noundef @__func__.H5O_link_delete, i32 noundef 623, i64 noundef %33, i64 noundef %34, ptr noundef @.str.2)
  br label %36

36:                                               ; preds = %32
  store i8 1, ptr %10, align 1
  %37 = load i8, ptr %10, align 1
  %38 = trunc i8 %37 to i1
  %39 = zext i1 %38 to i8
  store i8 %39, ptr %10, align 1
  br label %40

40:                                               ; preds = %36
  br label %41

41:                                               ; preds = %40
  store i32 -1, ptr %9, align 4
  br label %132

42:                                               ; No predecessors!
  br label %43

43:                                               ; preds = %42
  br label %44

44:                                               ; preds = %43, %18
  br label %131

45:                                               ; preds = %3
  %46 = load ptr, ptr %7, align 8
  %47 = getelementptr inbounds %struct.H5O_link_t, ptr %46, i32 0, i32 0
  %48 = load i32, ptr %47, align 8
  %49 = icmp sge i32 %48, 64
  br i1 %49, label %50, label %130

50:                                               ; preds = %45
  %51 = load ptr, ptr %7, align 8
  %52 = getelementptr inbounds %struct.H5O_link_t, ptr %51, i32 0, i32 0
  %53 = load i32, ptr %52, align 8
  %54 = call ptr @H5L_find_class(i32 noundef %53)
  store ptr %54, ptr %12, align 8
  %55 = icmp eq ptr null, %54
  br i1 %55, label %56, label %71

56:                                               ; preds = %50
  br label %57

57:                                               ; preds = %56
  br label %58

58:                                               ; preds = %57
  br label %59

59:                                               ; preds = %58
  %60 = load i64, ptr @H5E_OHDR_g, align 8
  %61 = load i64, ptr @H5E_NOTREGISTERED_g, align 8
  %62 = call i32 (ptr, ptr, i32, i64, i64, ptr, ...) @H5E_printf_stack(ptr noundef @.str.1, ptr noundef @__func__.H5O_link_delete, i32 noundef 631, i64 noundef %60, i64 noundef %61, ptr noundef @.str.3)
  br label %63

63:                                               ; preds = %59
  store i8 1, ptr %10, align 1
  %64 = load i8, ptr %10, align 1
  %65 = trunc i8 %64 to i1
  %66 = zext i1 %65 to i8
  store i8 %66, ptr %10, align 1
  br label %67

67:                                               ; preds = %63
  br label %68

68:                                               ; preds = %67
  store i32 -1, ptr %9, align 4
  br label %132

69:                                               ; No predecessors!
  br label %70

70:                                               ; preds = %69
  br label %71

71:                                               ; preds = %70, %50
  %72 = load ptr, ptr %12, align 8
  %73 = getelementptr inbounds %struct.H5L_class_t, ptr %72, i32 0, i32 7
  %74 = load ptr, ptr %73, align 8
  %75 = icmp ne ptr %74, null
  br i1 %75, label %76, label %129

76:                                               ; preds = %71
  %77 = load ptr, ptr %4, align 8
  %78 = call i64 @H5F_get_id(ptr noundef %77)
  store i64 %78, ptr %8, align 8
  %79 = icmp slt i64 %78, 0
  br i1 %79, label %80, label %95

80:                                               ; preds = %76
  br label %81

81:                                               ; preds = %80
  br label %82

82:                                               ; preds = %81
  br label %83

83:                                               ; preds = %82
  %84 = load i64, ptr @H5E_OHDR_g, align 8
  %85 = load i64, ptr @H5E_CANTGET_g, align 8
  %86 = call i32 (ptr, ptr, i32, i64, i64, ptr, ...) @H5E_printf_stack(ptr noundef @.str.1, ptr noundef @__func__.H5O_link_delete, i32 noundef 637, i64 noundef %84, i64 noundef %85, ptr noundef @.str.4)
  br label %87

87:                                               ; preds = %83
  store i8 1, ptr %10, align 1
  %88 = load i8, ptr %10, align 1
  %89 = trunc i8 %88 to i1
  %90 = zext i1 %89 to i8
  store i8 %90, ptr %10, align 1
  br label %91

91:                                               ; preds = %87
  br label %92

92:                                               ; preds = %91
  store i32 -1, ptr %9, align 4
  br label %132

93:                                               ; No predecessors!
  br label %94

94:                                               ; preds = %93
  br label %95

95:                                               ; preds = %94, %76
  %96 = load ptr, ptr %12, align 8
  %97 = getelementptr inbounds %struct.H5L_class_t, ptr %96, i32 0, i32 7
  %98 = load ptr, ptr %97, align 8
  %99 = load ptr, ptr %7, align 8
  %100 = getelementptr inbounds %struct.H5O_link_t, ptr %99, i32 0, i32 4
  %101 = load ptr, ptr %100, align 8
  %102 = load i64, ptr %8, align 8
  %103 = load ptr, ptr %7, align 8
  %104 = getelementptr inbounds %struct.H5O_link_t, ptr %103, i32 0, i32 5
  %105 = getelementptr inbounds %struct.H5O_link_ud_t, ptr %104, i32 0, i32 0
  %106 = load ptr, ptr %105, align 8
  %107 = load ptr, ptr %7, align 8
  %108 = getelementptr inbounds %struct.H5O_link_t, ptr %107, i32 0, i32 5
  %109 = getelementptr inbounds %struct.H5O_link_ud_t, ptr %108, i32 0, i32 1
  %110 = load i64, ptr %109, align 8
  %111 = call i32 %98(ptr noundef %101, i64 noundef %102, ptr noundef %106, i64 noundef %110)
  %112 = icmp slt i32 %111, 0
  br i1 %112, label %113, label %128

113:                                              ; preds = %95
  br label %114

114:                                              ; preds = %113
  br label %115

115:                                              ; preds = %114
  br label %116

116:                                              ; preds = %115
  %117 = load i64, ptr @H5E_OHDR_g, align 8
  %118 = load i64, ptr @H5E_CALLBACK_g, align 8
  %119 = call i32 (ptr, ptr, i32, i64, i64, ptr, ...) @H5E_printf_stack(ptr noundef @.str.1, ptr noundef @__func__.H5O_link_delete, i32 noundef 641, i64 noundef %117, i64 noundef %118, ptr noundef @.str.5)
  br label %120

120:                                              ; preds = %116
  store i8 1, ptr %10, align 1
  %121 = load i8, ptr %10, align 1
  %122 = trunc i8 %121 to i1
  %123 = zext i1 %122 to i8
  store i8 %123, ptr %10, align 1
  br label %124

124:                                              ; preds = %120
  br label %125

125:                                              ; preds = %124
  store i32 -1, ptr %9, align 4
  br label %132

126:                                              ; No predecessors!
  br label %127

127:                                              ; preds = %126
  br label %128

128:                                              ; preds = %127, %95
  br label %129

129:                                              ; preds = %128, %71
  br label %130

130:                                              ; preds = %129, %45
  br label %131

131:                                              ; preds = %130, %44
  br label %132

132:                                              ; preds = %131, %125, %92, %68, %41
  %133 = load i64, ptr %8, align 8
  %134 = icmp sgt i64 %133, 0
  br i1 %134, label %135, label %152

135:                                              ; preds = %132
  %136 = load i64, ptr %8, align 8
  %137 = call i32 @H5I_dec_ref(i64 noundef %136)
  %138 = icmp slt i32 %137, 0
  br i1 %138, label %139, label %152

139:                                              ; preds = %135
  br label %140

140:                                              ; preds = %139
  br label %141

141:                                              ; preds = %140
  br label %142

142:                                              ; preds = %141
  %143 = load i64, ptr @H5E_OHDR_g, align 8
  %144 = load i64, ptr @H5E_CANTCLOSEFILE_g, align 8
  %145 = call i32 (ptr, ptr, i32, i64, i64, ptr, ...) @H5E_printf_stack(ptr noundef @.str.1, ptr noundef @__func__.H5O_link_delete, i32 noundef 648, i64 noundef %143, i64 noundef %144, ptr noundef @.str.6)
  br label %146

146:                                              ; preds = %142
  store i8 1, ptr %10, align 1
  %147 = load i8, ptr %10, align 1
  %148 = trunc i8 %147 to i1
  %149 = zext i1 %148 to i8
  store i8 %149, ptr %10, align 1
  br label %150

150:                                              ; preds = %146
  store i32 -1, ptr %9, align 4
  br label %151

151:                                              ; preds = %150
  br label %152

152:                                              ; preds = %151, %135, %132
  %153 = load i32, ptr %9, align 4
  ret i32 %153
}