; Function Attrs: nounwind uwtable
define range(i32 -1, 1) i32 @H5O_link_delete(ptr noundef %0, ptr nocapture readnone %1, ptr nocapture noundef readonly %2) #0 {
  %4 = alloca %struct.H5O_loc_t, align 8
  %5 = load i32, ptr %2, align 8
  %6 = icmp eq i32 %5, 0
  br i1 %6, label %7, label %18

7:                                                ; preds = %3
  %8 = call i32 @H5O_loc_reset(ptr noundef nonnull %4) #7
  store ptr %0, ptr %4, align 8
  %9 = getelementptr inbounds i8, ptr %2, i64 32
  %10 = load i64, ptr %9, align 8
  %11 = getelementptr inbounds i8, ptr %4, i64 8
  store i64 %10, ptr %11, align 8
  %12 = call i32 @H5O_link(ptr noundef nonnull %4, i32 noundef -1) #7
  %13 = icmp slt i32 %12, 0
  br i1 %13, label %14, label %.thread

14:                                               ; preds = %7
  %15 = load i64, ptr @H5E_OHDR_g, align 8
  %16 = load i64, ptr @H5E_CANTFREE_g, align 8
  %17 = call i32 (ptr, ptr, i32, i64, i64, ptr, ...) @H5E_printf_stack(ptr noundef nonnull @.str.1, ptr noundef nonnull @__func__.H5O_link_delete, i32 noundef 623, i64 noundef %15, i64 noundef %16, ptr noundef nonnull @.str.2) #7
  br label %.thread

18:                                               ; preds = %3
  %19 = icmp sgt i32 %5, 63
  br i1 %19, label %20, label %.thread

20:                                               ; preds = %18
  %21 = tail call ptr @H5L_find_class(i32 noundef %5) #7
  %22 = icmp eq ptr %21, null
  br i1 %22, label %23, label %27

23:                                               ; preds = %20
  %24 = load i64, ptr @H5E_OHDR_g, align 8
  %25 = load i64, ptr @H5E_NOTREGISTERED_g, align 8
  %26 = tail call i32 (ptr, ptr, i32, i64, i64, ptr, ...) @H5E_printf_stack(ptr noundef nonnull @.str.1, ptr noundef nonnull @__func__.H5O_link_delete, i32 noundef 631, i64 noundef %24, i64 noundef %25, ptr noundef nonnull @.str.3) #7
  br label %.thread

27:                                               ; preds = %20
  %28 = getelementptr inbounds i8, ptr %21, i64 48
  %29 = load ptr, ptr %28, align 8
  %.not = icmp eq ptr %29, null
  br i1 %.not, label %.thread, label %30

30:                                               ; preds = %27
  %31 = tail call i64 @H5F_get_id(ptr noundef %0) #7
  %32 = icmp slt i64 %31, 0
  br i1 %32, label %33, label %37

33:                                               ; preds = %30
  %34 = load i64, ptr @H5E_OHDR_g, align 8
  %35 = load i64, ptr @H5E_CANTGET_g, align 8
  %36 = tail call i32 (ptr, ptr, i32, i64, i64, ptr, ...) @H5E_printf_stack(ptr noundef nonnull @.str.1, ptr noundef nonnull @__func__.H5O_link_delete, i32 noundef 637, i64 noundef %34, i64 noundef %35, ptr noundef nonnull @.str.4) #7
  br label %.thread

37:                                               ; preds = %30
  %38 = load ptr, ptr %28, align 8
  %39 = getelementptr inbounds i8, ptr %2, i64 24
  %40 = load ptr, ptr %39, align 8
  %41 = getelementptr inbounds i8, ptr %2, i64 32
  %42 = load ptr, ptr %41, align 8
  %43 = getelementptr inbounds i8, ptr %2, i64 40
  %44 = load i64, ptr %43, align 8
  %45 = tail call i32 %38(ptr noundef %40, i64 noundef %31, ptr noundef %42, i64 noundef %44) #7
  %46 = icmp slt i32 %45, 0
  br i1 %46, label %47, label %51

47:                                               ; preds = %37
  %48 = load i64, ptr @H5E_OHDR_g, align 8
  %49 = load i64, ptr @H5E_CALLBACK_g, align 8
  %50 = tail call i32 (ptr, ptr, i32, i64, i64, ptr, ...) @H5E_printf_stack(ptr noundef nonnull @.str.1, ptr noundef nonnull @__func__.H5O_link_delete, i32 noundef 641, i64 noundef %48, i64 noundef %49, ptr noundef nonnull @.str.5) #7
  br label %51

51:                                               ; preds = %37, %47
  %.020 = phi i32 [ -1, %47 ], [ 0, %37 ]
  %.not27 = icmp eq i64 %31, 0
  br i1 %.not27, label %.thread, label %52

52:                                               ; preds = %51
  %53 = tail call i32 @H5I_dec_ref(i64 noundef %31) #7
  %54 = icmp slt i32 %53, 0
  br i1 %54, label %55, label %.thread

55:                                               ; preds = %52
  %56 = load i64, ptr @H5E_OHDR_g, align 8
  %57 = load i64, ptr @H5E_CANTCLOSEFILE_g, align 8
  %58 = tail call i32 (ptr, ptr, i32, i64, i64, ptr, ...) @H5E_printf_stack(ptr noundef nonnull @.str.1, ptr noundef nonnull @__func__.H5O_link_delete, i32 noundef 648, i64 noundef %56, i64 noundef %57, ptr noundef nonnull @.str.6) #7
  br label %.thread

.thread:                                          ; preds = %18, %27, %33, %23, %7, %14, %55, %52, %51
  %.1 = phi i32 [ -1, %55 ], [ %.020, %52 ], [ %.020, %51 ], [ 0, %18 ], [ 0, %27 ], [ -1, %33 ], [ -1, %23 ], [ 0, %7 ], [ -1, %14 ]
  ret i32 %.1
}